target datalayout = "e-m:e-p270:32:32-p271:32:32-p272:64:64-i64:64-i128:128-f80:128-n8:16:32:64-S128"
target triple = "x86_64-pc-linux-gnu"

%"class.ncnn::Mat" = type { ptr, ptr, i64, i32, ptr, i32, i32, i32, i32, i32, i64 }

; Function Attrs: mustprogress uwtable
define hidden void @_ZNK4ncnn8ModelBin4loadEiiiii(ptr dead_on_unwind noalias writable sret(%"class.ncnn::Mat") align 8 %0, ptr noundef nonnull align 8 dereferenceable(8) %1, i32 noundef %2, i32 noundef %3, i32 noundef %4, i32 noundef %5, i32 noundef %6) unnamed_addr #2 align 2 personality ptr @__gxx_personality_v0 {
  %8 = alloca ptr, align 8
  %9 = alloca ptr, align 8
  %10 = alloca ptr, align 8
  %11 = alloca i32, align 4
  %12 = alloca i32, align 4
  %13 = alloca ptr, align 8
  %14 = alloca i32, align 4
  %15 = alloca i32, align 4
  %16 = alloca ptr, align 8
  %17 = alloca i32, align 4
  %18 = alloca i32, align 4
  %19 = alloca ptr, align 8
  %20 = alloca ptr, align 8
  %21 = alloca ptr, align 8
  %22 = alloca ptr, align 8
  %23 = alloca ptr, align 8
  %24 = alloca ptr, align 8
  %25 = alloca ptr, align 8
  %26 = alloca ptr, align 8
  %27 = alloca i32, align 4
  %28 = alloca i32, align 4
  %29 = alloca i32, align 4
  %30 = alloca i32, align 4
  %31 = alloca i32, align 4
  %32 = alloca %"class.ncnn::Mat", align 8
  %33 = alloca ptr, align 8
  %34 = alloca i32, align 4
  %35 = alloca i32, align 4
  store ptr %0, ptr %25, align 8
  store ptr %1, ptr %26, align 8
  store i32 %2, ptr %27, align 4
  store i32 %3, ptr %28, align 4
  store i32 %4, ptr %29, align 4
  store i32 %5, ptr %30, align 4
  store i32 %6, ptr %31, align 4
  %36 = load ptr, ptr %26, align 8
  %37 = load i32, ptr %27, align 4
  %38 = load i32, ptr %28, align 4
  %39 = mul nsw i32 %37, %38
  %40 = load i32, ptr %29, align 4
  %41 = mul nsw i32 %39, %40
  %42 = load i32, ptr %30, align 4
  %43 = mul nsw i32 %41, %42
  %44 = load i32, ptr %31, align 4
  %45 = load ptr, ptr %36, align 8
  %46 = getelementptr inbounds ptr, ptr %45, i64 2
  %47 = load ptr, ptr %46, align 8
  call void %47(ptr dead_on_unwind writable sret(%"class.ncnn::Mat") align 8 %32, ptr noundef nonnull align 8 dereferenceable(8) %36, i32 noundef %43, i32 noundef %44)
  store ptr %32, ptr %24, align 8
  %48 = load ptr, ptr %24, align 8
  %49 = load ptr, ptr %48, align 8
  %50 = icmp eq ptr %49, null
  br i1 %50, label %60, label %51

51:                                               ; preds = %7
  store ptr %48, ptr %19, align 8
  %52 = load ptr, ptr %19, align 8
  %53 = getelementptr inbounds nuw %"class.ncnn::Mat", ptr %52, i32 0, i32 10
  %54 = load i64, ptr %53, align 8
  %55 = getelementptr inbounds nuw %"class.ncnn::Mat", ptr %52, i32 0, i32 9
  %56 = load i32, ptr %55, align 8
  %57 = sext i32 %56 to i64
  %58 = mul i64 %54, %57
  %59 = icmp eq i64 %58, 0
  br label %60

60:                                               ; preds = %51, %7
  %61 = phi i1 [ true, %7 ], [ %59, %51 ]
  br label %62

62:                                               ; preds = %60
  br i1 %61, label %63, label %168

63:                                               ; preds = %62
  store ptr %0, ptr %22, align 8
  store ptr %32, ptr %23, align 8
  %64 = load ptr, ptr %22, align 8
  %65 = load ptr, ptr %23, align 8
  %66 = load ptr, ptr %65, align 8
  store ptr %66, ptr %64, align 8
  %67 = getelementptr inbounds nuw %"class.ncnn::Mat", ptr %64, i32 0, i32 1
  %68 = load ptr, ptr %23, align 8
  %69 = getelementptr inbounds nuw %"class.ncnn::Mat", ptr %68, i32 0, i32 1
  %70 = load ptr, ptr %69, align 8
  store ptr %70, ptr %67, align 8
  %71 = getelementptr inbounds nuw %"class.ncnn::Mat", ptr %64, i32 0, i32 2
  %72 = load ptr, ptr %23, align 8
  %73 = getelementptr inbounds nuw %"class.ncnn::Mat", ptr %72, i32 0, i32 2
  %74 = load i64, ptr %73, align 8
  store i64 %74, ptr %71, align 8
  %75 = getelementptr inbounds nuw %"class.ncnn::Mat", ptr %64, i32 0, i32 3
  %76 = load ptr, ptr %23, align 8
  %77 = getelementptr inbounds nuw %"class.ncnn::Mat", ptr %76, i32 0, i32 3
  %78 = load i32, ptr %77, align 8
  store i32 %78, ptr %75, align 8
  %79 = getelementptr inbounds nuw %"class.ncnn::Mat", ptr %64, i32 0, i32 4
  %80 = load ptr, ptr %23, align 8
  %81 = getelementptr inbounds nuw %"class.ncnn::Mat", ptr %80, i32 0, i32 4
  %82 = load ptr, ptr %81, align 8
  store ptr %82, ptr %79, align 8
  %83 = getelementptr inbounds nuw %"class.ncnn::Mat", ptr %64, i32 0, i32 5
  %84 = load ptr, ptr %23, align 8
  %85 = getelementptr inbounds nuw %"class.ncnn::Mat", ptr %84, i32 0, i32 5
  %86 = load i32, ptr %85, align 8
  store i32 %86, ptr %83, align 8
  %87 = getelementptr inbounds nuw %"class.ncnn::Mat", ptr %64, i32 0, i32 6
  %88 = load ptr, ptr %23, align 8
  %89 = getelementptr inbounds nuw %"class.ncnn::Mat", ptr %88, i32 0, i32 6
  %90 = load i32, ptr %89, align 4
  store i32 %90, ptr %87, align 4
  %91 = getelementptr inbounds nuw %"class.ncnn::Mat", ptr %64, i32 0, i32 7
  %92 = load ptr, ptr %23, align 8
  %93 = getelementptr inbounds nuw %"class.ncnn::Mat", ptr %92, i32 0, i32 7
  %94 = load i32, ptr %93, align 8
  store i32 %94, ptr %91, align 8
  %95 = getelementptr inbounds nuw %"class.ncnn::Mat", ptr %64, i32 0, i32 8
  %96 = load ptr, ptr %23, align 8
  %97 = getelementptr inbounds nuw %"class.ncnn::Mat", ptr %96, i32 0, i32 8
  %98 = load i32, ptr %97, align 4
  store i32 %98, ptr %95, align 4
  %99 = getelementptr inbounds nuw %"class.ncnn::Mat", ptr %64, i32 0, i32 9
  %100 = load ptr, ptr %23, align 8
  %101 = getelementptr inbounds nuw %"class.ncnn::Mat", ptr %100, i32 0, i32 9
  %102 = load i32, ptr %101, align 8
  store i32 %102, ptr %99, align 8
  %103 = getelementptr inbounds nuw %"class.ncnn::Mat", ptr %64, i32 0, i32 10
  %104 = load ptr, ptr %23, align 8
  %105 = getelementptr inbounds nuw %"class.ncnn::Mat", ptr %104, i32 0, i32 10
  %106 = load i64, ptr %105, align 8
  store i64 %106, ptr %103, align 8
  store ptr %64, ptr %16, align 8
  %107 = load ptr, ptr %16, align 8
  %108 = getelementptr inbounds nuw %"class.ncnn::Mat", ptr %107, i32 0, i32 1
  %109 = load ptr, ptr %108, align 8
  %110 = icmp ne ptr %109, null
  br i1 %110, label %111, label %116

111:                                              ; preds = %63
  %112 = getelementptr inbounds nuw %"class.ncnn::Mat", ptr %107, i32 0, i32 1
  %113 = load ptr, ptr %112, align 8
  store i32 1, ptr %17, align 4
  %114 = load i32, ptr %17, align 4
  %115 = atomicrmw add ptr %113, i32 %114 acq_rel, align 4
  store i32 %115, ptr %18, align 4
  br label %116

116:                                              ; preds = %111, %63
  br label %117

117:                                              ; preds = %116
  store i32 1, ptr %35, align 4
  br label %174

118:                                              ; preds = %168
  %119 = landingpad { ptr, i32 }
          cleanup
  %120 = extractvalue { ptr, i32 } %119, 0
  store ptr %120, ptr %33, align 8
  %121 = extractvalue { ptr, i32 } %119, 1
  store i32 %121, ptr %34, align 4
  store ptr %32, ptr %20, align 8
  %122 = load ptr, ptr %20, align 8
  store ptr %122, ptr %13, align 8
  %123 = load ptr, ptr %13, align 8
  %124 = getelementptr inbounds nuw %"class.ncnn::Mat", ptr %123, i32 0, i32 1
  %125 = load ptr, ptr %124, align 8
  %126 = icmp ne ptr %125, null
  br i1 %126, label %127, label %154

127:                                              ; preds = %118
  %128 = getelementptr inbounds nuw %"class.ncnn::Mat", ptr %123, i32 0, i32 1
  %129 = load ptr, ptr %128, align 8
  store i32 -1, ptr %14, align 4
  %130 = load i32, ptr %14, align 4
  %131 = atomicrmw add ptr %129, i32 %130 acq_rel, align 4
  store i32 %131, ptr %15, align 4
  %132 = load i32, ptr %15, align 4
  %133 = icmp eq i32 %132, 1
  br i1 %133, label %134, label %154

134:                                              ; preds = %127
  %135 = getelementptr inbounds nuw %"class.ncnn::Mat", ptr %123, i32 0, i32 4
  %136 = load ptr, ptr %135, align 8
  %137 = icmp ne ptr %136, null
  br i1 %137, label %138, label %146

138:                                              ; preds = %134
  %139 = getelementptr inbounds nuw %"class.ncnn::Mat", ptr %123, i32 0, i32 4
  %140 = load ptr, ptr %139, align 8
  %141 = load ptr, ptr %123, align 8
  %142 = load ptr, ptr %140, align 8
  %143 = getelementptr inbounds ptr, ptr %142, i64 3
  %144 = load ptr, ptr %143, align 8
  invoke void %144(ptr noundef nonnull align 8 dereferenceable(8) %140, ptr noundef %141)
          to label %145 unwind label %164

145:                                              ; preds = %138
  br label %153

146:                                              ; preds = %134
  %147 = load ptr, ptr %123, align 8
  store ptr %147, ptr %8, align 8
  %148 = load ptr, ptr %8, align 8
  %149 = icmp ne ptr %148, null
  br i1 %149, label %150, label %152

150:                                              ; preds = %146
  %151 = load ptr, ptr %8, align 8
  call void @free(ptr noundef %151) #10
  br label %152

152:                                              ; preds = %150, %146
  br label %153

153:                                              ; preds = %152, %145
  br label %154

154:                                              ; preds = %153, %127, %118
  store ptr null, ptr %123, align 8
  %155 = getelementptr inbounds nuw %"class.ncnn::Mat", ptr %123, i32 0, i32 2
  store i64 0, ptr %155, align 8
  %156 = getelementptr inbounds nuw %"class.ncnn::Mat", ptr %123, i32 0, i32 3
  store i32 0, ptr %156, align 8
  %157 = getelementptr inbounds nuw %"class.ncnn::Mat", ptr %123, i32 0, i32 5
  store i32 0, ptr %157, align 8
  %158 = getelementptr inbounds nuw %"class.ncnn::Mat", ptr %123, i32 0, i32 6
  store i32 0, ptr %158, align 4
  %159 = getelementptr inbounds nuw %"class.ncnn::Mat", ptr %123, i32 0, i32 7
  store i32 0, ptr %159, align 8
  %160 = getelementptr inbounds nuw %"class.ncnn::Mat", ptr %123, i32 0, i32 8
  store i32 0, ptr %160, align 4
  %161 = getelementptr inbounds nuw %"class.ncnn::Mat", ptr %123, i32 0, i32 9
  store i32 0, ptr %161, align 8
  %162 = getelementptr inbounds nuw %"class.ncnn::Mat", ptr %123, i32 0, i32 10
  store i64 0, ptr %162, align 8
  %163 = getelementptr inbounds nuw %"class.ncnn::Mat", ptr %123, i32 0, i32 1
  store ptr null, ptr %163, align 8
  br label %167

164:                                              ; preds = %138
  %165 = landingpad { ptr, i32 }
          catch ptr null
  %166 = extractvalue { ptr, i32 } %165, 0
  call void @__clang_call_terminate(ptr %166) #12
  unreachable

167:                                              ; preds = %154
  br label %221

168:                                              ; preds = %62
  %169 = load i32, ptr %27, align 4
  %170 = load i32, ptr %28, align 4
  %171 = load i32, ptr %29, align 4
  %172 = load i32, ptr %30, align 4
  invoke void @_ZNK4ncnn3Mat7reshapeEiiiiPNS_9AllocatorE(ptr dead_on_unwind writable sret(%"class.ncnn::Mat") align 8 %0, ptr noundef nonnull align 8 dereferenceable(72) %32, i32 noundef %169, i32 noundef %170, i32 noundef %171, i32 noundef %172, ptr noundef null)
          to label %173 unwind label %118

173:                                              ; preds = %168
  store i32 1, ptr %35, align 4
  br label %174

174:                                              ; preds = %173, %117
  store ptr %32, ptr %21, align 8
  %175 = load ptr, ptr %21, align 8
  store ptr %175, ptr %10, align 8
  %176 = load ptr, ptr %10, align 8
  %177 = getelementptr inbounds nuw %"class.ncnn::Mat", ptr %176, i32 0, i32 1
  %178 = load ptr, ptr %177, align 8
  %179 = icmp ne ptr %178, null
  br i1 %179, label %180, label %207

180:                                              ; preds = %174
  %181 = getelementptr inbounds nuw %"class.ncnn::Mat", ptr %176, i32 0, i32 1
  %182 = load ptr, ptr %181, align 8
  store i32 -1, ptr %11, align 4
  %183 = load i32, ptr %11, align 4
  %184 = atomicrmw add ptr %182, i32 %183 acq_rel, align 4
  store i32 %184, ptr %12, align 4
  %185 = load i32, ptr %12, align 4
  %186 = icmp eq i32 %185, 1
  br i1 %186, label %187, label %207

187:                                              ; preds = %180
  %188 = getelementptr inbounds nuw %"class.ncnn::Mat", ptr %176, i32 0, i32 4
  %189 = load ptr, ptr %188, align 8
  %190 = icmp ne ptr %189, null
  br i1 %190, label %191, label %199

191:                                              ; preds = %187
  %192 = getelementptr inbounds nuw %"class.ncnn::Mat", ptr %176, i32 0, i32 4
  %193 = load ptr, ptr %192, align 8
  %194 = load ptr, ptr %176, align 8
  %195 = load ptr, ptr %193, align 8
  %196 = getelementptr inbounds ptr, ptr %195, i64 3
  %197 = load ptr, ptr %196, align 8
  invoke void %197(ptr noundef nonnull align 8 dereferenceable(8) %193, ptr noundef %194)
          to label %198 unwind label %217

198:                                              ; preds = %191
  br label %206

199:                                              ; preds = %187
  %200 = load ptr, ptr %176, align 8
  store ptr %200, ptr %9, align 8
  %201 = load ptr, ptr %9, align 8
  %202 = icmp ne ptr %201, null
  br i1 %202, label %203, label %205

203:                                              ; preds = %199
  %204 = load ptr, ptr %9, align 8
  call void @free(ptr noundef %204) #10
  br label %205

205:                                              ; preds = %203, %199
  br label %206

206:                                              ; preds = %205, %198
  br label %207

207:                                              ; preds = %206, %180, %174
  store ptr null, ptr %176, align 8
  %208 = getelementptr inbounds nuw %"class.ncnn::Mat", ptr %176, i32 0, i32 2
  store i64 0, ptr %208, align 8
  %209 = getelementptr inbounds nuw %"class.ncnn::Mat", ptr %176, i32 0, i32 3
  store i32 0, ptr %209, align 8
  %210 = getelementptr inbounds nuw %"class.ncnn::Mat", ptr %176, i32 0, i32 5
  store i32 0, ptr %210, align 8
  %211 = getelementptr inbounds nuw %"class.ncnn::Mat", ptr %176, i32 0, i32 6
  store i32 0, ptr %211, align 4
  %212 = getelementptr inbounds nuw %"class.ncnn::Mat", ptr %176, i32 0, i32 7
  store i32 0, ptr %212, align 8
  %213 = getelementptr inbounds nuw %"class.ncnn::Mat", ptr %176, i32 0, i32 8
  store i32 0, ptr %213, align 4
  %214 = getelementptr inbounds nuw %"class.ncnn::Mat", ptr %176, i32 0, i32 9
  store i32 0, ptr %214, align 8
  %215 = getelementptr inbounds nuw %"class.ncnn::Mat", ptr %176, i32 0, i32 10
  store i64 0, ptr %215, align 8
  %216 = getelementptr inbounds nuw %"class.ncnn::Mat", ptr %176, i32 0, i32 1
  store ptr null, ptr %216, align 8
  br label %220

217:                                              ; preds = %191
  %218 = landingpad { ptr, i32 }
          catch ptr null
  %219 = extractvalue { ptr, i32 } %218, 0
  call void @__clang_call_terminate(ptr %219) #12
  unreachable

220:                                              ; preds = %207
  ret void

221:                                              ; preds = %167
  %222 = load ptr, ptr %33, align 8
  %223 = load i32, ptr %34, align 4
  %224 = insertvalue { ptr, i32 } poison, ptr %222, 0
  %225 = insertvalue { ptr, i32 } %224, i32 %223, 1
  resume { ptr, i32 } %225
}