; Function Attrs: mustprogress uwtable
define hidden void @_ZNK4ncnn8ModelBin4loadEiiiii(ptr dead_on_unwind noalias writable sret(%"class.ncnn::Mat") align 8 %0, ptr noundef nonnull align 8 dereferenceable(8) %1, i32 noundef %2, i32 noundef %3, i32 noundef %4, i32 noundef %5, i32 noundef %6) unnamed_addr #4 align 2 personality ptr @__gxx_personality_v0 {
  %8 = alloca %"class.ncnn::Mat", align 8
  %9 = mul nsw i32 %3, %2
  %10 = mul nsw i32 %9, %4
  %11 = mul nsw i32 %10, %5
  %12 = load ptr, ptr %1, align 8
  %13 = getelementptr inbounds i8, ptr %12, i64 16
  %14 = load ptr, ptr %13, align 8
  call void %14(ptr dead_on_unwind nonnull writable sret(%"class.ncnn::Mat") align 8 %8, ptr noundef nonnull align 8 dereferenceable(8) %1, i32 noundef %11, i32 noundef %6)
  %15 = load ptr, ptr %8, align 8
  %16 = icmp eq ptr %15, null
  br i1 %16, label %..critedge_crit_edge, label %17

..critedge_crit_edge:                             ; preds = %7
  %.phi.trans.insert = getelementptr inbounds nuw i8, ptr %8, i64 56
  %.pre = load i32, ptr %.phi.trans.insert, align 8
  %.phi.trans.insert51 = getelementptr inbounds nuw i8, ptr %8, i64 64
  %.pre52 = load i64, ptr %.phi.trans.insert51, align 8
  br label %.critedge

17:                                               ; preds = %7
  %18 = getelementptr inbounds nuw i8, ptr %8, i64 64
  %19 = load i64, ptr %18, align 8
  %20 = getelementptr inbounds nuw i8, ptr %8, i64 56
  %21 = load i32, ptr %20, align 8
  %22 = sext i32 %21 to i64
  %23 = mul i64 %19, %22
  %24 = icmp eq i64 %23, 0
  br i1 %24, label %.critedge, label %76

.critedge:                                        ; preds = %..critedge_crit_edge, %17
  %25 = phi i64 [ %.pre52, %..critedge_crit_edge ], [ %19, %17 ]
  %26 = phi i32 [ %.pre, %..critedge_crit_edge ], [ %21, %17 ]
  store ptr %15, ptr %0, align 8
  %27 = getelementptr inbounds nuw i8, ptr %0, i64 8
  %28 = getelementptr inbounds nuw i8, ptr %8, i64 8
  %29 = load ptr, ptr %28, align 8
  store ptr %29, ptr %27, align 8
  %30 = getelementptr inbounds nuw i8, ptr %0, i64 16
  %31 = getelementptr inbounds nuw i8, ptr %8, i64 16
  %32 = load i64, ptr %31, align 8
  store i64 %32, ptr %30, align 8
  %33 = getelementptr inbounds nuw i8, ptr %0, i64 24
  %34 = getelementptr inbounds nuw i8, ptr %8, i64 24
  %35 = load i32, ptr %34, align 8
  store i32 %35, ptr %33, align 8
  %36 = getelementptr inbounds nuw i8, ptr %0, i64 32
  %37 = getelementptr inbounds nuw i8, ptr %8, i64 32
  %38 = load ptr, ptr %37, align 8
  store ptr %38, ptr %36, align 8
  %39 = getelementptr inbounds nuw i8, ptr %0, i64 40
  %40 = getelementptr inbounds nuw i8, ptr %8, i64 40
  %41 = load i32, ptr %40, align 8
  store i32 %41, ptr %39, align 8
  %42 = getelementptr inbounds nuw i8, ptr %0, i64 44
  %43 = getelementptr inbounds nuw i8, ptr %8, i64 44
  %44 = load i32, ptr %43, align 4
  store i32 %44, ptr %42, align 4
  %45 = getelementptr inbounds nuw i8, ptr %0, i64 48
  %46 = getelementptr inbounds nuw i8, ptr %8, i64 48
  %47 = load i32, ptr %46, align 8
  store i32 %47, ptr %45, align 8
  %48 = getelementptr inbounds nuw i8, ptr %0, i64 52
  %49 = getelementptr inbounds nuw i8, ptr %8, i64 52
  %50 = load i32, ptr %49, align 4
  store i32 %50, ptr %48, align 4
  %51 = getelementptr inbounds nuw i8, ptr %0, i64 56
  store i32 %26, ptr %51, align 8
  %52 = getelementptr inbounds nuw i8, ptr %0, i64 64
  store i64 %25, ptr %52, align 8
  %.not47 = icmp eq ptr %29, null
  br i1 %.not47, label %77, label %53

53:                                               ; preds = %.critedge
  %54 = atomicrmw add ptr %29, i32 1 acq_rel, align 4
  br label %77

55:                                               ; preds = %76
  %56 = landingpad { ptr, i32 }
          cleanup
  %57 = getelementptr inbounds nuw i8, ptr %8, i64 8
  %58 = load ptr, ptr %57, align 8
  %.not = icmp eq ptr %58, null
  br i1 %.not, label %72, label %59

59:                                               ; preds = %55
  %60 = atomicrmw add ptr %58, i32 -1 acq_rel, align 4
  %61 = icmp eq i32 %60, 1
  br i1 %61, label %62, label %72

62:                                               ; preds = %59
  %63 = getelementptr inbounds nuw i8, ptr %8, i64 32
  %64 = load ptr, ptr %63, align 8
  %.not45 = icmp eq ptr %64, null
  %65 = load ptr, ptr %8, align 8
  br i1 %.not45, label %70, label %66

66:                                               ; preds = %62
  %67 = load ptr, ptr %64, align 8
  %68 = getelementptr inbounds i8, ptr %67, i64 24
  %69 = load ptr, ptr %68, align 8
  invoke void %69(ptr noundef nonnull align 8 dereferenceable(8) %64, ptr noundef %65)
          to label %72 unwind label %73

70:                                               ; preds = %62
  %.not46 = icmp eq ptr %65, null
  br i1 %.not46, label %72, label %71

71:                                               ; preds = %70
  call void @free(ptr noundef nonnull %65) #17
  br label %72

72:                                               ; preds = %66, %71, %70, %59, %55
  resume { ptr, i32 } %56

73:                                               ; preds = %66
  %74 = landingpad { ptr, i32 }
          catch ptr null
  %75 = extractvalue { ptr, i32 } %74, 0
  call void @__clang_call_terminate(ptr %75) #18
  unreachable

76:                                               ; preds = %17
  invoke void @_ZNK4ncnn3Mat7reshapeEiiiiPNS_9AllocatorE(ptr dead_on_unwind writable sret(%"class.ncnn::Mat") align 8 %0, ptr noundef nonnull align 8 dereferenceable(72) %8, i32 noundef %2, i32 noundef %3, i32 noundef %4, i32 noundef %5, ptr noundef null)
          to label %77 unwind label %55

77:                                               ; preds = %76, %53, %.critedge
  %78 = getelementptr inbounds nuw i8, ptr %8, i64 8
  %79 = load ptr, ptr %78, align 8
  %.not48 = icmp eq ptr %79, null
  br i1 %.not48, label %93, label %80

80:                                               ; preds = %77
  %81 = atomicrmw add ptr %79, i32 -1 acq_rel, align 4
  %82 = icmp eq i32 %81, 1
  br i1 %82, label %83, label %93

83:                                               ; preds = %80
  %84 = getelementptr inbounds nuw i8, ptr %8, i64 32
  %85 = load ptr, ptr %84, align 8
  %.not49 = icmp eq ptr %85, null
  %86 = load ptr, ptr %8, align 8
  br i1 %.not49, label %91, label %87

87:                                               ; preds = %83
  %88 = load ptr, ptr %85, align 8
  %89 = getelementptr inbounds i8, ptr %88, i64 24
  %90 = load ptr, ptr %89, align 8
  invoke void %90(ptr noundef nonnull align 8 dereferenceable(8) %85, ptr noundef %86)
          to label %93 unwind label %94

91:                                               ; preds = %83
  %.not50 = icmp eq ptr %86, null
  br i1 %.not50, label %93, label %92

92:                                               ; preds = %91
  call void @free(ptr noundef nonnull %86) #17
  br label %93

93:                                               ; preds = %87, %92, %91, %80, %77
  ret void

94:                                               ; preds = %87
  %95 = landingpad { ptr, i32 }
          catch ptr null
  %96 = extractvalue { ptr, i32 } %95, 0
  call void @__clang_call_terminate(ptr %96) #18
  unreachable
}